target datalayout = "e-m:e-p270:32:32-p271:32:32-p272:64:64-i64:64-i128:128-f80:128-n8:16:32:64-S128"
target triple = "x86_64-pc-linux-gnu"

%struct.lean_object = type { i32, i32 }

; Function Attrs: alwaysinline nounwind uwtable
define internal void @lean_dec_ref(ptr noundef %0) #1 {
  %2 = alloca ptr, align 8
  store ptr %0, ptr %2, align 8, !tbaa !8
  %3 = load ptr, ptr %2, align 8, !tbaa !8
  %4 = getelementptr inbounds nuw %struct.lean_object, ptr %3, i32 0, i32 0
  %5 = load i32, ptr %4, align 4, !tbaa !15
  %6 = icmp sgt i32 %5, 1
  %7 = zext i1 %6 to i32
  %8 = sext i32 %7 to i64
  %9 = call i64 @llvm.expect.i64(i64 %8, i64 1)
  %10 = icmp ne i64 %9, 0
  br i1 %10, label %11, label %16

11:                                               ; preds = %1
  %12 = load ptr, ptr %2, align 8, !tbaa !8
  %13 = getelementptr inbounds nuw %struct.lean_object, ptr %12, i32 0, i32 0
  %14 = load i32, ptr %13, align 4, !tbaa !15
  %15 = add i32 %14, -1
  store i32 %15, ptr %13, align 4, !tbaa !15
  br label %24

16:                                               ; preds = %1
  %17 = load ptr, ptr %2, align 8, !tbaa !8
  %18 = getelementptr inbounds nuw %struct.lean_object, ptr %17, i32 0, i32 0
  %19 = load i32, ptr %18, align 4, !tbaa !15
  %20 = icmp ne i32 %19, 0
  br i1 %20, label %21, label %23

21:                                               ; preds = %16
  %22 = load ptr, ptr %2, align 8, !tbaa !8
  call void @lean_dec_ref_cold(ptr noundef %22)
  br label %23

23:                                               ; preds = %21, %16
  br label %24

24:                                               ; preds = %23, %11
  ret void
}

; Function Attrs: alwaysinline nounwind uwtable
define internal zeroext i1 @lean_is_scalar(ptr noundef %0) #1 {
  %2 = alloca ptr, align 8
  store ptr %0, ptr %2, align 8, !tbaa !8
  %3 = load ptr, ptr %2, align 8, !tbaa !8
  %4 = ptrtoint ptr %3 to i64
  %5 = and i64 %4, 1
  %6 = icmp eq i64 %5, 1
  ret i1 %6
}

; Function Attrs: inlinehint nounwind uwtable
define internal ptr @lean_box(i64 noundef %0) #0 {
  %2 = alloca i64, align 8
  store i64 %0, ptr %2, align 8, !tbaa !4
  %3 = load i64, ptr %2, align 8, !tbaa !4
  %4 = shl i64 %3, 1
  %5 = or i64 %4, 1
  %6 = inttoptr i64 %5 to ptr
  ret ptr %6
}

; Function Attrs: alwaysinline nounwind uwtable
define internal void @lean_dec(ptr noundef %0) #1 {
  %2 = alloca ptr, align 8
  store ptr %0, ptr %2, align 8, !tbaa !8
  %3 = load ptr, ptr %2, align 8, !tbaa !8
  %4 = call zeroext i1 @lean_is_scalar(ptr noundef %3)
  br i1 %4, label %7, label %5

5:                                                ; preds = %1
  %6 = load ptr, ptr %2, align 8, !tbaa !8
  call void @lean_dec_ref(ptr noundef %6)
  br label %7

7:                                                ; preds = %5, %1
  ret void
}

; Function Attrs: nounwind uwtable
define zeroext i8 @l___private_Lean_Meta_ArgsPacker_0__Lean_Meta_ArgsPacker_withCurriedDecl_go___rarg___lambda__2(ptr noundef %0) #2 {
  %2 = alloca ptr, align 8
  %3 = alloca i8, align 1
  store ptr %0, ptr %2, align 8, !tbaa !8
  br label %4

4:                                                ; preds = %1
  call void @llvm.lifetime.start.p0(i64 1, ptr %3) #7
  store i8 0, ptr %3, align 1, !tbaa !12
  %5 = load i8, ptr %3, align 1, !tbaa !12
  call void @llvm.lifetime.end.p0(i64 1, ptr %3) #7
  ret i8 %5
}

; Function Attrs: nounwind uwtable
define ptr @l___private_Lean_Meta_ArgsPacker_0__Lean_Meta_ArgsPacker_withCurriedDecl_go___rarg___lambda__2___boxed(ptr noundef %0) #2 {
  %2 = alloca ptr, align 8
  %3 = alloca i8, align 1
  %4 = alloca ptr, align 8
  store ptr %0, ptr %2, align 8, !tbaa !8
  br label %5

5:                                                ; preds = %1
  call void @llvm.lifetime.start.p0(i64 1, ptr %3) #7
  call void @llvm.lifetime.start.p0(i64 8, ptr %4) #7
  %6 = load ptr, ptr %2, align 8, !tbaa !8
  %7 = call zeroext i8 @l___private_Lean_Meta_ArgsPacker_0__Lean_Meta_ArgsPacker_withCurriedDecl_go___rarg___lambda__2(ptr noundef %6)
  store i8 %7, ptr %3, align 1, !tbaa !12
  %8 = load ptr, ptr %2, align 8, !tbaa !8
  call void @lean_dec(ptr noundef %8)
  %9 = load i8, ptr %3, align 1, !tbaa !12
  %10 = zext i8 %9 to i64
  %11 = call ptr @lean_box(i64 noundef %10)
  store ptr %11, ptr %4, align 8, !tbaa !8
  %12 = load ptr, ptr %4, align 8, !tbaa !8
  call void @llvm.lifetime.end.p0(i64 8, ptr %4) #7
  call void @llvm.lifetime.end.p0(i64 1, ptr %3) #7
  ret ptr %12
}